target datalayout = "e-m:e-p270:32:32-p271:32:32-p272:64:64-i64:64-i128:128-f80:128-n8:16:32:64-S128"
target triple = "x86_64-pc-linux-gnu"

%struct.jv = type { i8, i8, i16, i32, %union.anon }
%union.anon = type { ptr }

@.str = private unnamed_addr constant [6 x i8] c"%s/%s\00", align 1
@.str.1 = private unnamed_addr constant [26 x i8] c"Could not expand %s. (%s)\00", align 1
@.str.2 = private unnamed_addr constant [5 x i8] c"HOME\00", align 1
@.str.3 = private unnamed_addr constant [31 x i8] c"Could not find home directory.\00", align 1

; Function Attrs: nounwind uwtable
define internal i32 @jv_is_valid(i64 %0, ptr %1) #0 {
  %3 = alloca %struct.jv, align 8
  %4 = getelementptr inbounds nuw { i64, ptr }, ptr %3, i32 0, i32 0
  store i64 %0, ptr %4, align 8
  %5 = getelementptr inbounds nuw { i64, ptr }, ptr %3, i32 0, i32 1
  store ptr %1, ptr %5, align 8
  %6 = getelementptr inbounds nuw { i64, ptr }, ptr %3, i32 0, i32 0
  %7 = load i64, ptr %6, align 8
  %8 = getelementptr inbounds nuw { i64, ptr }, ptr %3, i32 0, i32 1
  %9 = load ptr, ptr %8, align 8
  %10 = call i32 @jv_get_kind(i64 %7, ptr %9)
  %11 = icmp ne i32 %10, 0
  %12 = zext i1 %11 to i32
  ret i32 %12
}

; Function Attrs: nounwind uwtable
define dso_local { i64, ptr } @get_home() #0 {
  %1 = alloca %struct.jv, align 8
  %2 = alloca ptr, align 8
  %3 = alloca %struct.jv, align 8
  %4 = alloca %struct.jv, align 8
  %5 = alloca %struct.jv, align 8
  call void @llvm.lifetime.start.p0(i64 8, ptr %2) #8
  %6 = call ptr @getenv(ptr noundef @.str.2) #8
  store ptr %6, ptr %2, align 8, !tbaa !4
  %7 = load ptr, ptr %2, align 8, !tbaa !4
  %8 = icmp ne ptr %7, null
  br i1 %8, label %24, label %9

9:                                                ; preds = %0
  call void @llvm.lifetime.start.p0(i64 16, ptr %3) #8
  %10 = call { i64, ptr } @jv_string(ptr noundef @.str.3)
  %11 = getelementptr inbounds nuw { i64, ptr }, ptr %4, i32 0, i32 0
  %12 = extractvalue { i64, ptr } %10, 0
  store i64 %12, ptr %11, align 8
  %13 = getelementptr inbounds nuw { i64, ptr }, ptr %4, i32 0, i32 1
  %14 = extractvalue { i64, ptr } %10, 1
  store ptr %14, ptr %13, align 8
  %15 = getelementptr inbounds nuw { i64, ptr }, ptr %4, i32 0, i32 0
  %16 = load i64, ptr %15, align 8
  %17 = getelementptr inbounds nuw { i64, ptr }, ptr %4, i32 0, i32 1
  %18 = load ptr, ptr %17, align 8
  %19 = call { i64, ptr } @jv_invalid_with_msg(i64 %16, ptr %18)
  %20 = getelementptr inbounds nuw { i64, ptr }, ptr %3, i32 0, i32 0
  %21 = extractvalue { i64, ptr } %19, 0
  store i64 %21, ptr %20, align 8
  %22 = getelementptr inbounds nuw { i64, ptr }, ptr %3, i32 0, i32 1
  %23 = extractvalue { i64, ptr } %19, 1
  store ptr %23, ptr %22, align 8
  call void @llvm.memcpy.p0.p0.i64(ptr align 8 %1, ptr align 8 %3, i64 16, i1 false), !tbaa.struct !9
  call void @llvm.lifetime.end.p0(i64 16, ptr %3) #8
  br label %31

24:                                               ; preds = %0
  call void @llvm.lifetime.start.p0(i64 16, ptr %5) #8
  %25 = load ptr, ptr %2, align 8, !tbaa !4
  %26 = call { i64, ptr } @jv_string(ptr noundef %25)
  %27 = getelementptr inbounds nuw { i64, ptr }, ptr %5, i32 0, i32 0
  %28 = extractvalue { i64, ptr } %26, 0
  store i64 %28, ptr %27, align 8
  %29 = getelementptr inbounds nuw { i64, ptr }, ptr %5, i32 0, i32 1
  %30 = extractvalue { i64, ptr } %26, 1
  store ptr %30, ptr %29, align 8
  call void @llvm.memcpy.p0.p0.i64(ptr align 8 %1, ptr align 8 %5, i64 16, i1 false), !tbaa.struct !9
  call void @llvm.lifetime.end.p0(i64 16, ptr %5) #8
  br label %31

31:                                               ; preds = %24, %9
  call void @llvm.lifetime.end.p0(i64 8, ptr %2) #8
  %32 = load { i64, ptr }, ptr %1, align 8
  ret { i64, ptr } %32
}

; Function Attrs: nounwind uwtable
define dso_local { i64, ptr } @expand_path(i64 %0, ptr %1) #0 {
  %3 = alloca %struct.jv, align 8
  %4 = alloca %struct.jv, align 8
  %5 = alloca ptr, align 8
  %6 = alloca %struct.jv, align 8
  %7 = alloca %struct.jv, align 8
  %8 = alloca %struct.jv, align 8
  %9 = alloca %struct.jv, align 8
  %10 = alloca %struct.jv, align 8
  %11 = alloca %struct.jv, align 8
  %12 = getelementptr inbounds nuw { i64, ptr }, ptr %4, i32 0, i32 0
  store i64 %0, ptr %12, align 8
  %13 = getelementptr inbounds nuw { i64, ptr }, ptr %4, i32 0, i32 1
  store ptr %1, ptr %13, align 8
  call void @llvm.lifetime.start.p0(i64 8, ptr %5) #8
  %14 = getelementptr inbounds nuw { i64, ptr }, ptr %4, i32 0, i32 0
  %15 = load i64, ptr %14, align 8
  %16 = getelementptr inbounds nuw { i64, ptr }, ptr %4, i32 0, i32 1
  %17 = load ptr, ptr %16, align 8
  %18 = call ptr @jv_string_value(i64 %15, ptr %17)
  store ptr %18, ptr %5, align 8, !tbaa !4
  call void @llvm.memcpy.p0.p0.i64(ptr align 8 %3, ptr align 8 %4, i64 16, i1 false), !tbaa.struct !9
  %19 = getelementptr inbounds nuw { i64, ptr }, ptr %4, i32 0, i32 0
  %20 = load i64, ptr %19, align 8
  %21 = getelementptr inbounds nuw { i64, ptr }, ptr %4, i32 0, i32 1
  %22 = load ptr, ptr %21, align 8
  %23 = call { i64, ptr } @jv_copy(i64 %20, ptr %22)
  %24 = getelementptr inbounds nuw { i64, ptr }, ptr %6, i32 0, i32 0
  %25 = extractvalue { i64, ptr } %23, 0
  store i64 %25, ptr %24, align 8
  %26 = getelementptr inbounds nuw { i64, ptr }, ptr %6, i32 0, i32 1
  %27 = extractvalue { i64, ptr } %23, 1
  store ptr %27, ptr %26, align 8
  %28 = getelementptr inbounds nuw { i64, ptr }, ptr %6, i32 0, i32 0
  %29 = load i64, ptr %28, align 8
  %30 = getelementptr inbounds nuw { i64, ptr }, ptr %6, i32 0, i32 1
  %31 = load ptr, ptr %30, align 8
  %32 = call i32 @jv_string_length_bytes(i64 %29, ptr %31)
  %33 = icmp sgt i32 %32, 1
  br i1 %33, label %34, label %114

34:                                               ; preds = %2
  %35 = load ptr, ptr %5, align 8, !tbaa !4
  %36 = getelementptr inbounds i8, ptr %35, i64 0
  %37 = load i8, ptr %36, align 1, !tbaa !10
  %38 = sext i8 %37 to i32
  %39 = icmp eq i32 %38, 126
  br i1 %39, label %40, label %114

40:                                               ; preds = %34
  %41 = load ptr, ptr %5, align 8, !tbaa !4
  %42 = getelementptr inbounds i8, ptr %41, i64 1
  %43 = load i8, ptr %42, align 1, !tbaa !10
  %44 = sext i8 %43 to i32
  %45 = icmp eq i32 %44, 47
  br i1 %45, label %46, label %114

46:                                               ; preds = %40
  call void @llvm.lifetime.start.p0(i64 16, ptr %7) #8
  %47 = call { i64, ptr } @get_home()
  %48 = getelementptr inbounds nuw { i64, ptr }, ptr %7, i32 0, i32 0
  %49 = extractvalue { i64, ptr } %47, 0
  store i64 %49, ptr %48, align 8
  %50 = getelementptr inbounds nuw { i64, ptr }, ptr %7, i32 0, i32 1
  %51 = extractvalue { i64, ptr } %47, 1
  store ptr %51, ptr %50, align 8
  %52 = getelementptr inbounds nuw { i64, ptr }, ptr %7, i32 0, i32 0
  %53 = load i64, ptr %52, align 8
  %54 = getelementptr inbounds nuw { i64, ptr }, ptr %7, i32 0, i32 1
  %55 = load ptr, ptr %54, align 8
  %56 = call i32 @jv_is_valid(i64 %53, ptr %55)
  %57 = icmp ne i32 %56, 0
  br i1 %57, label %58, label %75

58:                                               ; preds = %46
  call void @llvm.lifetime.start.p0(i64 16, ptr %8) #8
  %59 = getelementptr inbounds nuw { i64, ptr }, ptr %7, i32 0, i32 0
  %60 = load i64, ptr %59, align 8
  %61 = getelementptr inbounds nuw { i64, ptr }, ptr %7, i32 0, i32 1
  %62 = load ptr, ptr %61, align 8
  %63 = call ptr @jv_string_value(i64 %60, ptr %62)
  %64 = load ptr, ptr %5, align 8, !tbaa !4
  %65 = getelementptr inbounds i8, ptr %64, i64 2
  %66 = call { i64, ptr } (ptr, ...) @jv_string_fmt(ptr noundef @.str, ptr noundef %63, ptr noundef %65)
  %67 = getelementptr inbounds nuw { i64, ptr }, ptr %8, i32 0, i32 0
  %68 = extractvalue { i64, ptr } %66, 0
  store i64 %68, ptr %67, align 8
  %69 = getelementptr inbounds nuw { i64, ptr }, ptr %8, i32 0, i32 1
  %70 = extractvalue { i64, ptr } %66, 1
  store ptr %70, ptr %69, align 8
  call void @llvm.memcpy.p0.p0.i64(ptr align 8 %3, ptr align 8 %8, i64 16, i1 false), !tbaa.struct !9
  call void @llvm.lifetime.end.p0(i64 16, ptr %8) #8
  %71 = getelementptr inbounds nuw { i64, ptr }, ptr %7, i32 0, i32 0
  %72 = load i64, ptr %71, align 8
  %73 = getelementptr inbounds nuw { i64, ptr }, ptr %7, i32 0, i32 1
  %74 = load ptr, ptr %73, align 8
  call void @jv_free(i64 %72, ptr %74)
  br label %109

75:                                               ; preds = %46
  call void @llvm.lifetime.start.p0(i64 16, ptr %9) #8
  %76 = getelementptr inbounds nuw { i64, ptr }, ptr %7, i32 0, i32 0
  %77 = load i64, ptr %76, align 8
  %78 = getelementptr inbounds nuw { i64, ptr }, ptr %7, i32 0, i32 1
  %79 = load ptr, ptr %78, align 8
  %80 = call { i64, ptr } @jv_invalid_get_msg(i64 %77, ptr %79)
  %81 = getelementptr inbounds nuw { i64, ptr }, ptr %9, i32 0, i32 0
  %82 = extractvalue { i64, ptr } %80, 0
  store i64 %82, ptr %81, align 8
  %83 = getelementptr inbounds nuw { i64, ptr }, ptr %9, i32 0, i32 1
  %84 = extractvalue { i64, ptr } %80, 1
  store ptr %84, ptr %83, align 8
  call void @llvm.lifetime.start.p0(i64 16, ptr %10) #8
  %85 = load ptr, ptr %5, align 8, !tbaa !4
  %86 = getelementptr inbounds nuw { i64, ptr }, ptr %9, i32 0, i32 0
  %87 = load i64, ptr %86, align 8
  %88 = getelementptr inbounds nuw { i64, ptr }, ptr %9, i32 0, i32 1
  %89 = load ptr, ptr %88, align 8
  %90 = call ptr @jv_string_value(i64 %87, ptr %89)
  %91 = call { i64, ptr } (ptr, ...) @jv_string_fmt(ptr noundef @.str.1, ptr noundef %85, ptr noundef %90)
  %92 = getelementptr inbounds nuw { i64, ptr }, ptr %11, i32 0, i32 0
  %93 = extractvalue { i64, ptr } %91, 0
  store i64 %93, ptr %92, align 8
  %94 = getelementptr inbounds nuw { i64, ptr }, ptr %11, i32 0, i32 1
  %95 = extractvalue { i64, ptr } %91, 1
  store ptr %95, ptr %94, align 8
  %96 = getelementptr inbounds nuw { i64, ptr }, ptr %11, i32 0, i32 0
  %97 = load i64, ptr %96, align 8
  %98 = getelementptr inbounds nuw { i64, ptr }, ptr %11, i32 0, i32 1
  %99 = load ptr, ptr %98, align 8
  %100 = call { i64, ptr } @jv_invalid_with_msg(i64 %97, ptr %99)
  %101 = getelementptr inbounds nuw { i64, ptr }, ptr %10, i32 0, i32 0
  %102 = extractvalue { i64, ptr } %100, 0
  store i64 %102, ptr %101, align 8
  %103 = getelementptr inbounds nuw { i64, ptr }, ptr %10, i32 0, i32 1
  %104 = extractvalue { i64, ptr } %100, 1
  store ptr %104, ptr %103, align 8
  call void @llvm.memcpy.p0.p0.i64(ptr align 8 %3, ptr align 8 %10, i64 16, i1 false), !tbaa.struct !9
  call void @llvm.lifetime.end.p0(i64 16, ptr %10) #8
  %105 = getelementptr inbounds nuw { i64, ptr }, ptr %9, i32 0, i32 0
  %106 = load i64, ptr %105, align 8
  %107 = getelementptr inbounds nuw { i64, ptr }, ptr %9, i32 0, i32 1
  %108 = load ptr, ptr %107, align 8
  call void @jv_free(i64 %106, ptr %108)
  call void @llvm.lifetime.end.p0(i64 16, ptr %9) #8
  br label %109

109:                                              ; preds = %75, %58
  %110 = getelementptr inbounds nuw { i64, ptr }, ptr %4, i32 0, i32 0
  %111 = load i64, ptr %110, align 8
  %112 = getelementptr inbounds nuw { i64, ptr }, ptr %4, i32 0, i32 1
  %113 = load ptr, ptr %112, align 8
  call void @jv_free(i64 %111, ptr %113)
  call void @llvm.lifetime.end.p0(i64 16, ptr %7) #8
  br label %114

114:                                              ; preds = %109, %40, %34, %2
  call void @llvm.lifetime.end.p0(i64 8, ptr %5) #8
  %115 = load { i64, ptr }, ptr %3, align 8
  ret { i64, ptr } %115
}