; Function Attrs: nounwind uwtable
define dso_local { i64, ptr } @expand_path(i64 %0, ptr %1) local_unnamed_addr #0 {
  %3 = tail call ptr @jv_string_value(i64 %0, ptr %1) #13
  %4 = tail call { i64, ptr } @jv_copy(i64 %0, ptr %1) #13
  %5 = extractvalue { i64, ptr } %4, 0
  %6 = extractvalue { i64, ptr } %4, 1
  %7 = tail call i32 @jv_string_length_bytes(i64 %5, ptr %6) #13
  %8 = icmp sgt i32 %7, 1
  br i1 %8, label %9, label %42

9:                                                ; preds = %2
  %10 = load i8, ptr %3, align 1, !tbaa !4
  %11 = icmp eq i8 %10, 126
  br i1 %11, label %12, label %42

12:                                               ; preds = %9
  %13 = getelementptr inbounds nuw i8, ptr %3, i64 1
  %14 = load i8, ptr %13, align 1, !tbaa !4
  %15 = icmp eq i8 %14, 47
  br i1 %15, label %16, label %42

16:                                               ; preds = %12
  %17 = tail call ptr @getenv(ptr noundef nonnull @.str.2) #13
  %.not.i = icmp eq ptr %17, null
  br i1 %.not.i, label %18, label %23

18:                                               ; preds = %16
  %19 = tail call { i64, ptr } @jv_string(ptr noundef nonnull @.str.3) #13
  %20 = extractvalue { i64, ptr } %19, 0
  %21 = extractvalue { i64, ptr } %19, 1
  %22 = tail call { i64, ptr } @jv_invalid_with_msg(i64 %20, ptr %21) #13
  br label %get_home.exit

23:                                               ; preds = %16
  %24 = tail call { i64, ptr } @jv_string(ptr noundef nonnull %17) #13
  br label %get_home.exit

get_home.exit:                                    ; preds = %18, %23
  %.pn.i = phi { i64, ptr } [ %24, %23 ], [ %22, %18 ]
  %25 = extractvalue { i64, ptr } %.pn.i, 0
  %26 = extractvalue { i64, ptr } %.pn.i, 1
  %27 = tail call i32 @jv_get_kind(i64 %25, ptr %26) #13
  %.not28 = icmp eq i32 %27, 0
  br i1 %.not28, label %32, label %28

28:                                               ; preds = %get_home.exit
  %29 = tail call ptr @jv_string_value(i64 %25, ptr %26) #13
  %30 = getelementptr inbounds nuw i8, ptr %3, i64 2
  %31 = tail call { i64, ptr } (ptr, ...) @jv_string_fmt(ptr noundef nonnull @.str, ptr noundef %29, ptr noundef nonnull %30) #13
  tail call void @jv_free(i64 %25, ptr %26) #13
  br label %41

32:                                               ; preds = %get_home.exit
  %33 = tail call { i64, ptr } @jv_invalid_get_msg(i64 %25, ptr %26) #13
  %34 = extractvalue { i64, ptr } %33, 0
  %35 = extractvalue { i64, ptr } %33, 1
  %36 = tail call ptr @jv_string_value(i64 %34, ptr %35) #13
  %37 = tail call { i64, ptr } (ptr, ...) @jv_string_fmt(ptr noundef nonnull @.str.1, ptr noundef nonnull %3, ptr noundef %36) #13
  %38 = extractvalue { i64, ptr } %37, 0
  %39 = extractvalue { i64, ptr } %37, 1
  %40 = tail call { i64, ptr } @jv_invalid_with_msg(i64 %38, ptr %39) #13
  tail call void @jv_free(i64 %34, ptr %35) #13
  br label %41

41:                                               ; preds = %32, %28
  %.pn = phi { i64, ptr } [ %31, %28 ], [ %40, %32 ]
  %.sroa.426.1 = extractvalue { i64, ptr } %.pn, 1
  %.sroa.025.1 = extractvalue { i64, ptr } %.pn, 0
  tail call void @jv_free(i64 %0, ptr %1) #13
  br label %42

42:                                               ; preds = %41, %12, %9, %2
  %.sroa.025.0 = phi i64 [ %.sroa.025.1, %41 ], [ %0, %12 ], [ %0, %9 ], [ %0, %2 ]
  %.sroa.426.0 = phi ptr [ %.sroa.426.1, %41 ], [ %1, %12 ], [ %1, %9 ], [ %1, %2 ]
  %.fca.0.insert = insertvalue { i64, ptr } poison, i64 %.sroa.025.0, 0
  %.fca.1.insert = insertvalue { i64, ptr } %.fca.0.insert, ptr %.sroa.426.0, 1
  ret { i64, ptr } %.fca.1.insert
}